target datalayout = "e-m:e-p270:32:32-p271:32:32-p272:64:64-i64:64-i128:128-f80:128-n8:16:32:64-S128"
target triple = "x86_64-pc-linux-gnu"

%struct.pmix_proc = type { [256 x i8], i32 }
%struct.pmix_list_t = type { %struct.pmix_object_t, %struct.pmix_list_item_t, i64 }
%struct.pmix_object_t = type { %union.pthread_mutex_t, ptr, i32, %struct.pmix_tma }
%union.pthread_mutex_t = type { %struct.__pthread_mutex_s }
%struct.__pthread_mutex_s = type { i32, i32, i32, i32, i32, i16, i16, %struct.__pthread_internal_list }
%struct.__pthread_internal_list = type { ptr, ptr }
%struct.pmix_tma = type { ptr, ptr, ptr, ptr, ptr, ptr, ptr, ptr }
%struct.pmix_list_item_t = type { %struct.pmix_object_t, ptr, ptr, i32 }
%struct.pmix_cli_result_t = type { %struct.pmix_object_t, %struct.pmix_list_t, ptr }
%struct.prte_job_t = type { %struct.pmix_list_item_t, i32, ptr, ptr, [256 x i8], ptr, i32, i32, ptr, ptr, i32, i32, i32, i32, ptr, ptr, ptr, i32, i32, i32, i32, i32, i32, i32, %struct.pmix_proc, i32, i16, %struct.pmix_list_t, %struct.pmix_data_buffer, %struct.pmix_list_t, [256 x i8], i32, ptr, %struct.pmix_cli_result_t }
%struct.pmix_data_buffer = type { ptr, ptr, ptr, i64, i64 }
%struct.prte_node_t = type { %struct.pmix_list_item_t, i32, ptr, ptr, ptr, ptr, ptr, ptr, i16, ptr, i16, i8, i32, i32, i32, i32, ptr, i8, %struct.pmix_list_t }
%struct.prte_topology_t = type { %struct.pmix_object_t, i32, ptr, ptr }
%struct.prte_rmaps_options_t = type { i16, i8, i32, i32, ptr, ptr, i8, i8, i8, i8, i8, i16, i8, i8, i16, i32, i32, i32, i32, i16, i8, i32, i32, i32, i16, i8, i32, i16, ptr, ptr }
%struct.prte_job_map_t = type { %struct.pmix_object_t, ptr, ptr, i16, i16, i16, i8, i32, i32, i32, ptr }
%struct.hwloc_topology_support = type { ptr, ptr, ptr, ptr }
%struct.hwloc_topology_cpubind_support = type { i8, i8, i8, i8, i8, i8, i8, i8, i8, i8, i8 }
%struct.hwloc_topology_membind_support = type { i8, i8, i8, i8, i8, i8, i8, i8, i8, i8, i8, i8, i8, i8, i8 }

@.str.2 = private unnamed_addr constant [25 x i8] c"help-prte-rmaps-base.txt\00", align 1
@.str.34 = private unnamed_addr constant [28 x i8] c"rmaps:cpubind-not-supported\00", align 1
@prte_hwloc_base_mbfa = external global i32, align 4
@.str.35 = private unnamed_addr constant [28 x i8] c"rmaps:membind-not-supported\00", align 1
@.str.36 = private unnamed_addr constant [34 x i8] c"rmaps:membind-not-supported-fatal\00", align 1

; Function Attrs: nounwind uwtable
define i32 @prte_rmaps_base_check_support(ptr noundef %0, ptr noundef %1, ptr noundef %2) #0 {
  %4 = alloca i32, align 4
  %5 = alloca ptr, align 8
  %6 = alloca ptr, align 8
  %7 = alloca ptr, align 8
  %8 = alloca ptr, align 8
  %9 = alloca i32, align 4
  store ptr %0, ptr %5, align 8, !tbaa !3
  store ptr %1, ptr %6, align 8, !tbaa !3
  store ptr %2, ptr %7, align 8, !tbaa !3
  call void @llvm.lifetime.start.p0(i64 8, ptr %8) #13
  %10 = load ptr, ptr %5, align 8, !tbaa !3
  %11 = getelementptr inbounds nuw %struct.prte_job_t, ptr %10, i32 0, i32 26
  %12 = load i16, ptr %11, align 4, !tbaa !153
  %13 = zext i16 %12 to i32
  %14 = and i32 %13, 4096
  %15 = icmp ne i32 %14, 0
  br i1 %15, label %25, label %16

16:                                               ; preds = %3
  %17 = load ptr, ptr %5, align 8, !tbaa !3
  %18 = getelementptr inbounds nuw %struct.prte_job_t, ptr %17, i32 0, i32 15
  %19 = load ptr, ptr %18, align 8, !tbaa !147
  %20 = getelementptr inbounds nuw %struct.prte_job_map_t, ptr %19, i32 0, i32 5
  %21 = load i16, ptr %20, align 4, !tbaa !154
  %22 = zext i16 %21 to i32
  %23 = and i32 %22, 255
  %24 = icmp eq i32 1, %23
  br i1 %24, label %25, label %26

25:                                               ; preds = %16, %3
  store i32 0, ptr %4, align 4
  store i32 1, ptr %9, align 4
  br label %119

26:                                               ; preds = %16
  %27 = load ptr, ptr %6, align 8, !tbaa !3
  %28 = getelementptr inbounds nuw %struct.prte_node_t, ptr %27, i32 0, i32 16
  %29 = load ptr, ptr %28, align 8, !tbaa !80
  %30 = getelementptr inbounds nuw %struct.prte_topology_t, ptr %29, i32 0, i32 2
  %31 = load ptr, ptr %30, align 8, !tbaa !81
  %32 = call ptr @hwloc_topology_get_support(ptr noundef %31)
  store ptr %32, ptr %8, align 8, !tbaa !155
  %33 = load ptr, ptr %8, align 8, !tbaa !155
  %34 = getelementptr inbounds nuw %struct.hwloc_topology_support, ptr %33, i32 0, i32 1
  %35 = load ptr, ptr %34, align 8, !tbaa !157
  %36 = getelementptr inbounds nuw %struct.hwloc_topology_cpubind_support, ptr %35, i32 0, i32 0
  %37 = load i8, ptr %36, align 1, !tbaa !163
  %38 = icmp ne i8 %37, 0
  br i1 %38, label %70, label %39

39:                                               ; preds = %26
  %40 = load ptr, ptr %8, align 8, !tbaa !155
  %41 = getelementptr inbounds nuw %struct.hwloc_topology_support, ptr %40, i32 0, i32 1
  %42 = load ptr, ptr %41, align 8, !tbaa !157
  %43 = getelementptr inbounds nuw %struct.hwloc_topology_cpubind_support, ptr %42, i32 0, i32 4
  %44 = load i8, ptr %43, align 1, !tbaa !165
  %45 = icmp ne i8 %44, 0
  br i1 %45, label %70, label %46

46:                                               ; preds = %39
  %47 = load ptr, ptr %5, align 8, !tbaa !3
  %48 = getelementptr inbounds nuw %struct.prte_job_t, ptr %47, i32 0, i32 15
  %49 = load ptr, ptr %48, align 8, !tbaa !147
  %50 = getelementptr inbounds nuw %struct.prte_job_map_t, ptr %49, i32 0, i32 5
  %51 = load i16, ptr %50, align 4, !tbaa !154
  %52 = zext i16 %51 to i32
  %53 = and i32 4096, %52
  %54 = icmp ne i32 %53, 0
  br i1 %54, label %69, label %55

55:                                               ; preds = %46
  %56 = load ptr, ptr %5, align 8, !tbaa !3
  %57 = getelementptr inbounds nuw %struct.prte_job_t, ptr %56, i32 0, i32 15
  %58 = load ptr, ptr %57, align 8, !tbaa !147
  %59 = getelementptr inbounds nuw %struct.prte_job_map_t, ptr %58, i32 0, i32 5
  %60 = load i16, ptr %59, align 4, !tbaa !154
  %61 = zext i16 %60 to i32
  %62 = and i32 %61, 16384
  %63 = icmp ne i32 %62, 0
  br i1 %63, label %64, label %69

64:                                               ; preds = %55
  %65 = load ptr, ptr %6, align 8, !tbaa !3
  %66 = getelementptr inbounds nuw %struct.prte_node_t, ptr %65, i32 0, i32 2
  %67 = load ptr, ptr %66, align 8, !tbaa !63
  %68 = call i32 (ptr, ptr, i32, ...) @pmix_show_help(ptr noundef @.str.2, ptr noundef @.str.34, i32 noundef 1, ptr noundef %67)
  store i32 -43, ptr %4, align 4
  store i32 1, ptr %9, align 4
  br label %119

69:                                               ; preds = %55, %46
  br label %70

70:                                               ; preds = %69, %39, %26
  %71 = load ptr, ptr %8, align 8, !tbaa !155
  %72 = getelementptr inbounds nuw %struct.hwloc_topology_support, ptr %71, i32 0, i32 2
  %73 = load ptr, ptr %72, align 8, !tbaa !166
  %74 = getelementptr inbounds nuw %struct.hwloc_topology_membind_support, ptr %73, i32 0, i32 0
  %75 = load i8, ptr %74, align 1, !tbaa !167
  %76 = icmp ne i8 %75, 0
  br i1 %76, label %118, label %77

77:                                               ; preds = %70
  %78 = load ptr, ptr %8, align 8, !tbaa !155
  %79 = getelementptr inbounds nuw %struct.hwloc_topology_support, ptr %78, i32 0, i32 2
  %80 = load ptr, ptr %79, align 8, !tbaa !166
  %81 = getelementptr inbounds nuw %struct.hwloc_topology_membind_support, ptr %80, i32 0, i32 4
  %82 = load i8, ptr %81, align 1, !tbaa !169
  %83 = icmp ne i8 %82, 0
  br i1 %83, label %118, label %84

84:                                               ; preds = %77
  %85 = load ptr, ptr %5, align 8, !tbaa !3
  %86 = getelementptr inbounds nuw %struct.prte_job_t, ptr %85, i32 0, i32 15
  %87 = load ptr, ptr %86, align 8, !tbaa !147
  %88 = getelementptr inbounds nuw %struct.prte_job_map_t, ptr %87, i32 0, i32 5
  %89 = load i16, ptr %88, align 4, !tbaa !154
  %90 = zext i16 %89 to i32
  %91 = and i32 %90, 16384
  %92 = icmp ne i32 %91, 0
  br i1 %92, label %93, label %118

93:                                               ; preds = %84
  %94 = load i32, ptr @prte_hwloc_base_mbfa, align 4, !tbaa !11
  %95 = icmp eq i32 1, %94
  br i1 %95, label %96, label %108

96:                                               ; preds = %93
  %97 = load ptr, ptr %7, align 8, !tbaa !3
  %98 = getelementptr inbounds nuw %struct.prte_rmaps_options_t, ptr %97, i32 0, i32 8
  %99 = load i8, ptr %98, align 2, !tbaa !170, !range !15, !noundef !16
  %100 = trunc i8 %99 to i1
  br i1 %100, label %108, label %101

101:                                              ; preds = %96
  %102 = load ptr, ptr %6, align 8, !tbaa !3
  %103 = getelementptr inbounds nuw %struct.prte_node_t, ptr %102, i32 0, i32 2
  %104 = load ptr, ptr %103, align 8, !tbaa !63
  %105 = call i32 (ptr, ptr, i32, ...) @pmix_show_help(ptr noundef @.str.2, ptr noundef @.str.35, i32 noundef 1, ptr noundef %104)
  %106 = load ptr, ptr %7, align 8, !tbaa !3
  %107 = getelementptr inbounds nuw %struct.prte_rmaps_options_t, ptr %106, i32 0, i32 8
  store i8 1, ptr %107, align 2, !tbaa !170
  br label %117

108:                                              ; preds = %96, %93
  %109 = load i32, ptr @prte_hwloc_base_mbfa, align 4, !tbaa !11
  %110 = icmp eq i32 2, %109
  br i1 %110, label %111, label %116

111:                                              ; preds = %108
  %112 = load ptr, ptr %6, align 8, !tbaa !3
  %113 = getelementptr inbounds nuw %struct.prte_node_t, ptr %112, i32 0, i32 2
  %114 = load ptr, ptr %113, align 8, !tbaa !63
  %115 = call i32 (ptr, ptr, i32, ...) @pmix_show_help(ptr noundef @.str.2, ptr noundef @.str.36, i32 noundef 1, ptr noundef %114)
  store i32 -43, ptr %4, align 4
  store i32 1, ptr %9, align 4
  br label %119

116:                                              ; preds = %108
  br label %117

117:                                              ; preds = %116, %101
  br label %118

118:                                              ; preds = %117, %84, %77, %70
  store i32 0, ptr %4, align 4
  store i32 1, ptr %9, align 4
  br label %119

119:                                              ; preds = %118, %111, %64, %25
  call void @llvm.lifetime.end.p0(i64 8, ptr %8) #13
  %120 = load i32, ptr %4, align 4
  ret i32 %120
}