; Function Attrs: nounwind uwtable
define range(i32 -43, 1) i32 @prte_rmaps_base_check_support(ptr noundef readonly captures(none) %0, ptr noundef readonly captures(none) %1, ptr noundef captures(none) %2) local_unnamed_addr #0 {
  %4 = getelementptr inbounds nuw i8, ptr %0, i64 788
  %5 = load i16, ptr %4, align 4, !tbaa !132
  %6 = and i16 %5, 4096
  %.not = icmp eq i16 %6, 0
  br i1 %.not, label %7, label %.thread

7:                                                ; preds = %3
  %8 = getelementptr inbounds nuw i8, ptr %0, i64 480
  %9 = load ptr, ptr %8, align 8, !tbaa !126
  %10 = getelementptr inbounds nuw i8, ptr %9, i64 140
  %11 = load i16, ptr %10, align 4, !tbaa !133
  %12 = and i16 %11, 255
  %13 = icmp eq i16 %12, 1
  br i1 %13, label %.thread, label %14

14:                                               ; preds = %7
  %15 = getelementptr inbounds nuw i8, ptr %1, i64 240
  %16 = load ptr, ptr %15, align 8, !tbaa !78
  %17 = getelementptr inbounds nuw i8, ptr %16, i64 128
  %18 = load ptr, ptr %17, align 8, !tbaa !79
  %19 = tail call ptr @hwloc_topology_get_support(ptr noundef %18) #11
  %20 = getelementptr inbounds nuw i8, ptr %19, i64 8
  %21 = load ptr, ptr %20, align 8, !tbaa !134
  %22 = load i8, ptr %21, align 1, !tbaa !140
  %.not15 = icmp eq i8 %22, 0
  br i1 %.not15, label %23, label %35

23:                                               ; preds = %14
  %24 = getelementptr inbounds nuw i8, ptr %21, i64 4
  %25 = load i8, ptr %24, align 1, !tbaa !142
  %.not16 = icmp eq i8 %25, 0
  br i1 %.not16, label %26, label %35

26:                                               ; preds = %23
  %27 = load ptr, ptr %8, align 8, !tbaa !126
  %28 = getelementptr inbounds nuw i8, ptr %27, i64 140
  %29 = load i16, ptr %28, align 4, !tbaa !133
  %30 = and i16 %29, 20480
  %or.cond.not = icmp eq i16 %30, 16384
  br i1 %or.cond.not, label %31, label %35

31:                                               ; preds = %26
  %32 = getelementptr inbounds nuw i8, ptr %1, i64 152
  %33 = load ptr, ptr %32, align 8, !tbaa !64
  %34 = tail call i32 (ptr, ptr, i32, ...) @pmix_show_help(ptr noundef nonnull @.str.2, ptr noundef nonnull @.str.34, i32 noundef 1, ptr noundef %33) #11
  br label %.thread

35:                                               ; preds = %26, %23, %14
  %36 = getelementptr inbounds nuw i8, ptr %19, i64 16
  %37 = load ptr, ptr %36, align 8, !tbaa !143
  %38 = load i8, ptr %37, align 1, !tbaa !144
  %.not19 = icmp eq i8 %38, 0
  br i1 %.not19, label %39, label %.thread

39:                                               ; preds = %35
  %40 = getelementptr inbounds nuw i8, ptr %37, i64 4
  %41 = load i8, ptr %40, align 1, !tbaa !146
  %.not20 = icmp eq i8 %41, 0
  br i1 %.not20, label %42, label %.thread

42:                                               ; preds = %39
  %43 = load ptr, ptr %8, align 8, !tbaa !126
  %44 = getelementptr inbounds nuw i8, ptr %43, i64 140
  %45 = load i16, ptr %44, align 4, !tbaa !133
  %46 = and i16 %45, 16384
  %.not21 = icmp eq i16 %46, 0
  br i1 %.not21, label %.thread, label %47

47:                                               ; preds = %42
  %48 = load i32, ptr @prte_hwloc_base_mbfa, align 4, !tbaa !24
  switch i32 %48, label %.thread [
    i32 1, label %49
    i32 2, label %57
  ]

49:                                               ; preds = %47
  %50 = getelementptr inbounds nuw i8, ptr %2, i64 34
  %51 = load i8, ptr %50, align 2, !tbaa !147, !range !27, !noundef !28
  %52 = trunc nuw i8 %51 to i1
  br i1 %52, label %.thread, label %53

53:                                               ; preds = %49
  %54 = getelementptr inbounds nuw i8, ptr %1, i64 152
  %55 = load ptr, ptr %54, align 8, !tbaa !64
  %56 = tail call i32 (ptr, ptr, i32, ...) @pmix_show_help(ptr noundef nonnull @.str.2, ptr noundef nonnull @.str.35, i32 noundef 1, ptr noundef %55) #11
  store i8 1, ptr %50, align 2, !tbaa !147
  br label %.thread

57:                                               ; preds = %47
  %58 = getelementptr inbounds nuw i8, ptr %1, i64 152
  %59 = load ptr, ptr %58, align 8, !tbaa !64
  %60 = tail call i32 (ptr, ptr, i32, ...) @pmix_show_help(ptr noundef nonnull @.str.2, ptr noundef nonnull @.str.36, i32 noundef 1, ptr noundef %59) #11
  br label %.thread

.thread:                                          ; preds = %47, %49, %35, %39, %42, %53, %3, %7, %57, %31
  %.0 = phi i32 [ -43, %57 ], [ -43, %31 ], [ 0, %7 ], [ 0, %3 ], [ 0, %53 ], [ 0, %42 ], [ 0, %39 ], [ 0, %35 ], [ 0, %49 ], [ 0, %47 ]
  ret i32 %.0
}